; ModuleID = '46/1735.c'
source_filename = "46/1735.c"
target datalayout = "e-m:e-p270:32:32-p271:32:32-p272:64:64-i64:64-f80:128-n8:16:32:64-S128"
target triple = "x86_64-pc-linux-gnu"

@.str = private unnamed_addr constant [6 x i8] c"%d %d\00", align 1
@.str.1 = private unnamed_addr constant [3 x i8] c"%d\00", align 1
@.str.2 = private unnamed_addr constant [4 x i8] c"%d\0A\00", align 1

; Function Attrs: noinline nounwind uwtable
define dso_local i32 @main() #0 {
  %1 = alloca i32, align 4
  %2 = alloca [100 x [100 x i32]], align 16
  %3 = alloca i32, align 4
  %4 = alloca i32, align 4
  %5 = alloca i32, align 4
  %6 = alloca i32, align 4
  %7 = alloca i32, align 4
  %8 = alloca i32, align 4
  %9 = alloca i32, align 4
  %10 = alloca i32, align 4
  %11 = alloca i32, align 4
  store i32 0, i32* %1, align 4
  store i32 0, i32* %11, align 4
  %12 = call i32 (i8*, ...) @__isoc99_scanf(i8* getelementptr inbounds ([6 x i8], [6 x i8]* @.str, i64 0, i64 0), i32* %3, i32* %4)
  store i32 0, i32* %5, align 4
  br label %13

13:                                               ; preds = %34, %0
  %14 = load i32, i32* %5, align 4
  %15 = load i32, i32* %3, align 4
  %16 = icmp slt i32 %14, %15
  br i1 %16, label %17, label %37

17:                                               ; preds = %13
  store i32 0, i32* %6, align 4
  br label %18

18:                                               ; preds = %30, %17
  %19 = load i32, i32* %6, align 4
  %20 = load i32, i32* %4, align 4
  %21 = icmp slt i32 %19, %20
  br i1 %21, label %22, label %33

22:                                               ; preds = %18
  %23 = load i32, i32* %5, align 4
  %24 = sext i32 %23 to i64
  %25 = getelementptr inbounds [100 x [100 x i32]], [100 x [100 x i32]]* %2, i64 0, i64 %24
  %26 = load i32, i32* %6, align 4
  %27 = sext i32 %26 to i64
  %28 = getelementptr inbounds [100 x i32], [100 x i32]* %25, i64 0, i64 %27
  %29 = call i32 (i8*, ...) @__isoc99_scanf(i8* getelementptr inbounds ([3 x i8], [3 x i8]* @.str.1, i64 0, i64 0), i32* %28)
  br label %30

30:                                               ; preds = %22
  %31 = load i32, i32* %6, align 4
  %32 = add nsw i32 %31, 1
  store i32 %32, i32* %6, align 4
  br label %18

33:                                               ; preds = %18
  br label %34

34:                                               ; preds = %33
  %35 = load i32, i32* %5, align 4
  %36 = add nsw i32 %35, 1
  store i32 %36, i32* %5, align 4
  br label %13

37:                                               ; preds = %13
  store i32 0, i32* %7, align 4
  store i32 0, i32* %8, align 4
  %38 = load i32, i32* %4, align 4
  store i32 %38, i32* %9, align 4
  %39 = load i32, i32* %3, align 4
  store i32 %39, i32* %10, align 4
  br label %40

40:                                               ; preds = %188, %37
  %41 = load i32, i32* %7, align 4
  %42 = load i32, i32* %3, align 4
  %43 = icmp slt i32 %41, %42
  %44 = zext i1 %43 to i32
  %45 = load i32, i32* %8, align 4
  %46 = load i32, i32* %4, align 4
  %47 = icmp slt i32 %45, %46
  %48 = zext i1 %47 to i32
  %49 = load i32, i32* %9, align 4
  %50 = icmp sge i32 %49, 0
  %51 = zext i1 %50 to i32
  %52 = load i32, i32* %10, align 4
  %53 = icmp sge i32 %52, 0
  br i1 %53, label %54, label %197

54:                                               ; preds = %40
  %55 = load i32, i32* %7, align 4
  store i32 %55, i32* %5, align 4
  %56 = load i32, i32* %8, align 4
  store i32 %56, i32* %6, align 4
  br label %57

57:                                               ; preds = %70, %54
  %58 = load i32, i32* %6, align 4
  %59 = load i32, i32* %9, align 4
  %60 = icmp slt i32 %58, %59
  br i1 %60, label %61, label %73

61:                                               ; preds = %57
  %62 = load i32, i32* %5, align 4
  %63 = sext i32 %62 to i64
  %64 = getelementptr inbounds [100 x [100 x i32]], [100 x [100 x i32]]* %2, i64 0, i64 %63
  %65 = load i32, i32* %6, align 4
  %66 = sext i32 %65 to i64
  %67 = getelementptr inbounds [100 x i32], [100 x i32]* %64, i64 0, i64 %66
  %68 = load i32, i32* %67, align 4
  %69 = call i32 (i8*, ...) @printf(i8* getelementptr inbounds ([4 x i8], [4 x i8]* @.str.2, i64 0, i64 0), i32 %68)
  br label %70

70:                                               ; preds = %61
  %71 = load i32, i32* %6, align 4
  %72 = add nsw i32 %71, 1
  store i32 %72, i32* %6, align 4
  br label %57

73:                                               ; preds = %57
  %74 = load i32, i32* %9, align 4
  %75 = load i32, i32* %8, align 4
  %76 = sub nsw i32 %74, %75
  %77 = load i32, i32* %11, align 4
  %78 = add nsw i32 %77, %76
  store i32 %78, i32* %11, align 4
  %79 = load i32, i32* %11, align 4
  %80 = load i32, i32* %3, align 4
  %81 = load i32, i32* %4, align 4
  %82 = mul nsw i32 %80, %81
  %83 = icmp sge i32 %79, %82
  br i1 %83, label %84, label %85

84:                                               ; preds = %73
  br label %197

85:                                               ; preds = %73
  %86 = load i32, i32* %9, align 4
  %87 = sub nsw i32 %86, 1
  store i32 %87, i32* %6, align 4
  %88 = load i32, i32* %7, align 4
  %89 = add nsw i32 %88, 1
  store i32 %89, i32* %5, align 4
  br label %90

90:                                               ; preds = %103, %85
  %91 = load i32, i32* %5, align 4
  %92 = load i32, i32* %10, align 4
  %93 = icmp slt i32 %91, %92
  br i1 %93, label %94, label %106

94:                                               ; preds = %90
  %95 = load i32, i32* %5, align 4
  %96 = sext i32 %95 to i64
  %97 = getelementptr inbounds [100 x [100 x i32]], [100 x [100 x i32]]* %2, i64 0, i64 %96
  %98 = load i32, i32* %6, align 4
  %99 = sext i32 %98 to i64
  %100 = getelementptr inbounds [100 x i32], [100 x i32]* %97, i64 0, i64 %99
  %101 = load i32, i32* %100, align 4
  %102 = call i32 (i8*, ...) @printf(i8* getelementptr inbounds ([4 x i8], [4 x i8]* @.str.2, i64 0, i64 0), i32 %101)
  br label %103

103:                                              ; preds = %94
  %104 = load i32, i32* %5, align 4
  %105 = add nsw i32 %104, 1
  store i32 %105, i32* %5, align 4
  br label %90

106:                                              ; preds = %90
  %107 = load i32, i32* %11, align 4
  %108 = load i32, i32* %3, align 4
  %109 = load i32, i32* %4, align 4
  %110 = mul nsw i32 %108, %109
  %111 = icmp sge i32 %107, %110
  br i1 %111, label %112, label %113

112:                                              ; preds = %106
  br label %197

113:                                              ; preds = %106
  %114 = load i32, i32* %10, align 4
  %115 = load i32, i32* %7, align 4
  %116 = sub nsw i32 %114, %115
  %117 = sub nsw i32 %116, 1
  %118 = load i32, i32* %11, align 4
  %119 = add nsw i32 %118, %117
  store i32 %119, i32* %11, align 4
  %120 = load i32, i32* %10, align 4
  %121 = sub nsw i32 %120, 1
  store i32 %121, i32* %5, align 4
  %122 = load i32, i32* %9, align 4
  %123 = sub nsw i32 %122, 2
  store i32 %123, i32* %6, align 4
  br label %124

124:                                              ; preds = %138, %113
  %125 = load i32, i32* %6, align 4
  %126 = load i32, i32* %8, align 4
  %127 = sub nsw i32 %126, 1
  %128 = icmp sgt i32 %125, %127
  br i1 %128, label %129, label %141

129:                                              ; preds = %124
  %130 = load i32, i32* %5, align 4
  %131 = sext i32 %130 to i64
  %132 = getelementptr inbounds [100 x [100 x i32]], [100 x [100 x i32]]* %2, i64 0, i64 %131
  %133 = load i32, i32* %6, align 4
  %134 = sext i32 %133 to i64
  %135 = getelementptr inbounds [100 x i32], [100 x i32]* %132, i64 0, i64 %134
  %136 = load i32, i32* %135, align 4
  %137 = call i32 (i8*, ...) @printf(i8* getelementptr inbounds ([4 x i8], [4 x i8]* @.str.2, i64 0, i64 0), i32 %136)
  br label %138

138:                                              ; preds = %129
  %139 = load i32, i32* %6, align 4
  %140 = add nsw i32 %139, -1
  store i32 %140, i32* %6, align 4
  br label %124

141:                                              ; preds = %124
  %142 = load i32, i32* %11, align 4
  %143 = load i32, i32* %3, align 4
  %144 = load i32, i32* %4, align 4
  %145 = mul nsw i32 %143, %144
  %146 = icmp sge i32 %142, %145
  br i1 %146, label %147, label %148

147:                                              ; preds = %141
  br label %197

148:                                              ; preds = %141
  %149 = load i32, i32* %9, align 4
  %150 = load i32, i32* %8, align 4
  %151 = sub nsw i32 %149, %150
  %152 = sub nsw i32 %151, 1
  %153 = load i32, i32* %11, align 4
  %154 = add nsw i32 %153, %152
  store i32 %154, i32* %11, align 4
  %155 = load i32, i32* %8, align 4
  store i32 %155, i32* %6, align 4
  %156 = load i32, i32* %10, align 4
  %157 = sub nsw i32 %156, 2
  store i32 %157, i32* %5, align 4
  br label %158

158:                                              ; preds = %171, %148
  %159 = load i32, i32* %5, align 4
  %160 = load i32, i32* %7, align 4
  %161 = icmp sgt i32 %159, %160
  br i1 %161, label %162, label %174

162:                                              ; preds = %158
  %163 = load i32, i32* %5, align 4
  %164 = sext i32 %163 to i64
  %165 = getelementptr inbounds [100 x [100 x i32]], [100 x [100 x i32]]* %2, i64 0, i64 %164
  %166 = load i32, i32* %6, align 4
  %167 = sext i32 %166 to i64
  %168 = getelementptr inbounds [100 x i32], [100 x i32]* %165, i64 0, i64 %167
  %169 = load i32, i32* %168, align 4
  %170 = call i32 (i8*, ...) @printf(i8* getelementptr inbounds ([4 x i8], [4 x i8]* @.str.2, i64 0, i64 0), i32 %169)
  br label %171

171:                                              ; preds = %162
  %172 = load i32, i32* %5, align 4
  %173 = add nsw i32 %172, -1
  store i32 %173, i32* %5, align 4
  br label %158

174:                                              ; preds = %158
  %175 = load i32, i32* %10, align 4
  %176 = load i32, i32* %7, align 4
  %177 = sub nsw i32 %175, %176
  %178 = sub nsw i32 %177, 2
  %179 = load i32, i32* %11, align 4
  %180 = add nsw i32 %179, %178
  store i32 %180, i32* %11, align 4
  %181 = load i32, i32* %11, align 4
  %182 = load i32, i32* %3, align 4
  %183 = load i32, i32* %4, align 4
  %184 = mul nsw i32 %182, %183
  %185 = icmp sge i32 %181, %184
  br i1 %185, label %186, label %187

186:                                              ; preds = %174
  br label %197

187:                                              ; preds = %174
  br label %188

188:                                              ; preds = %187
  %189 = load i32, i32* %7, align 4
  %190 = add nsw i32 %189, 1
  store i32 %190, i32* %7, align 4
  %191 = load i32, i32* %8, align 4
  %192 = add nsw i32 %191, 1
  store i32 %192, i32* %8, align 4
  %193 = load i32, i32* %9, align 4
  %194 = add nsw i32 %193, -1
  store i32 %194, i32* %9, align 4
  %195 = load i32, i32* %10, align 4
  %196 = add nsw i32 %195, -1
  store i32 %196, i32* %10, align 4
  br label %40

197:                                              ; preds = %186, %147, %112, %84, %40
  ret i32 0
}

declare dso_local i32 @__isoc99_scanf(i8*, ...) #1

declare dso_local i32 @printf(i8*, ...) #1


!llvm.module.flags = !{!0}
!llvm.ident = !{!1}

!0 = !{i32 1, !"wchar_size", i32 4}
!1 = !{!"clang version 10.0.0-4ubuntu1 "}
